target datalayout = "e-m:e-p270:32:32-p271:32:32-p272:64:64-i64:64-i128:128-f80:128-n8:16:32:64-S128"
target triple = "x86_64-pc-linux-gnu"

%struct.ObjectAddress = type { i32, i32, i32 }
%struct.RelationData = type { %struct.RelFileLocator, ptr, i32, i32, i8, i8, i8, i8, i8, i32, i32, i32, i32, ptr, ptr, i32, %struct.LockInfoData, ptr, ptr, ptr, ptr, ptr, i8, ptr, ptr, ptr, ptr, ptr, ptr, i32, ptr, i8, ptr, ptr, i32, i8, i32, ptr, i8, ptr, ptr, ptr, ptr, ptr, ptr, ptr, i32, ptr, ptr, ptr, ptr, ptr, ptr, ptr, ptr, ptr, ptr, ptr, ptr, ptr, ptr, ptr, ptr, ptr, ptr, ptr, i32, i8, ptr }
%struct.RelFileLocator = type { i32, i32, i32 }
%struct.LockInfoData = type { %struct.LockRelId }
%struct.LockRelId = type { i32, i32 }
%struct.HeapTupleData = type { i32, %struct.ItemPointerData, i32, ptr }
%struct.ItemPointerData = type { %struct.BlockIdData, i16 }
%struct.BlockIdData = type { i16, i16 }
%struct.AlterStatsStmt = type { i32, ptr, ptr, i8 }
%struct.Integer = type { i32, i32 }

@.str.1 = private unnamed_addr constant [12 x i8] c"statscmds.c\00", align 1
@InvalidObjectAddress = external constant %struct.ObjectAddress, align 4
@object_access_hook = external global ptr, align 8
@.str.21 = private unnamed_addr constant [32 x i8] c"statistics target %d is too low\00", align 1
@__func__.AlterStatistics = private unnamed_addr constant [16 x i8] c"AlterStatistics\00", align 1
@.str.22 = private unnamed_addr constant [33 x i8] c"lowering statistics target to %d\00", align 1
@.str.23 = private unnamed_addr constant [51 x i8] c"statistics object \22%s.%s\22 does not exist, skipping\00", align 1
@.str.24 = private unnamed_addr constant [48 x i8] c"statistics object \22%s\22 does not exist, skipping\00", align 1
@.str.25 = private unnamed_addr constant [54 x i8] c"cache lookup failed for extended statistics object %u\00", align 1

; Function Attrs: inlinehint nounwind uwtable
define internal i64 @Int16GetDatum(i16 noundef signext %0) #3 {
  %2 = alloca i16, align 2
  store i16 %0, ptr %2, align 2
  %3 = load i16, ptr %2, align 2
  %4 = sext i16 %3 to i64
  ret i64 %4
}

; Function Attrs: inlinehint nounwind uwtable
define internal i64 @ObjectIdGetDatum(i32 noundef %0) #3 {
  %2 = alloca i32, align 4
  store i32 %0, ptr %2, align 4
  %3 = load i32, ptr %2, align 4
  %4 = zext i32 %3 to i64
  ret i64 %4
}

; Function Attrs: nounwind uwtable
define dso_local { i64, i32 } @AlterStatistics(ptr noundef %0) #0 {
  %2 = alloca %struct.ObjectAddress, align 4
  %3 = alloca ptr, align 8
  %4 = alloca ptr, align 8
  %5 = alloca i32, align 4
  %6 = alloca ptr, align 8
  %7 = alloca ptr, align 8
  %8 = alloca [9 x i64], align 16
  %9 = alloca [9 x i8], align 1
  %10 = alloca [9 x i8], align 1
  %11 = alloca %struct.ObjectAddress, align 4
  %12 = alloca i32, align 4
  %13 = alloca i8, align 1
  %14 = alloca ptr, align 8
  %15 = alloca ptr, align 8
  %16 = alloca i32, align 4
  %17 = alloca { i64, i32 }, align 8
  store ptr %0, ptr %3, align 8
  call void @llvm.lifetime.start.p0(i64 8, ptr %4) #8
  call void @llvm.lifetime.start.p0(i64 4, ptr %5) #8
  call void @llvm.lifetime.start.p0(i64 8, ptr %6) #8
  call void @llvm.lifetime.start.p0(i64 8, ptr %7) #8
  call void @llvm.lifetime.start.p0(i64 72, ptr %8) #8
  call void @llvm.lifetime.start.p0(i64 9, ptr %9) #8
  call void @llvm.lifetime.start.p0(i64 9, ptr %10) #8
  call void @llvm.lifetime.start.p0(i64 12, ptr %11) #8
  call void @llvm.lifetime.start.p0(i64 4, ptr %12) #8
  store i32 0, ptr %12, align 4
  call void @llvm.lifetime.start.p0(i64 1, ptr %13) #8
  %18 = load ptr, ptr %3, align 8
  %19 = getelementptr inbounds nuw %struct.AlterStatsStmt, ptr %18, i32 0, i32 2
  %20 = load ptr, ptr %19, align 8
  %21 = icmp ne ptr %20, null
  br i1 %21, label %22, label %35

22:                                               ; preds = %1
  %23 = load ptr, ptr %3, align 8
  %24 = getelementptr inbounds nuw %struct.AlterStatsStmt, ptr %23, i32 0, i32 2
  %25 = load ptr, ptr %24, align 8
  %26 = getelementptr inbounds nuw %struct.Integer, ptr %25, i32 0, i32 1
  %27 = load i32, ptr %26, align 4
  %28 = icmp ne i32 %27, -1
  br i1 %28, label %29, label %35

29:                                               ; preds = %22
  %30 = load ptr, ptr %3, align 8
  %31 = getelementptr inbounds nuw %struct.AlterStatsStmt, ptr %30, i32 0, i32 2
  %32 = load ptr, ptr %31, align 8
  %33 = getelementptr inbounds nuw %struct.Integer, ptr %32, i32 0, i32 1
  %34 = load i32, ptr %33, align 4
  store i32 %34, ptr %12, align 4
  store i8 0, ptr %13, align 1
  br label %36

35:                                               ; preds = %22, %1
  store i8 1, ptr %13, align 1
  br label %36

36:                                               ; preds = %35, %29
  %37 = load i8, ptr %13, align 1, !range !4, !noundef !5
  %38 = trunc i8 %37 to i1
  br i1 %38, label %73, label %39

39:                                               ; preds = %36
  %40 = load i32, ptr %12, align 4
  %41 = icmp slt i32 %40, 0
  br i1 %41, label %42, label %55

42:                                               ; preds = %39
  br label %43

43:                                               ; preds = %42
  br i1 true, label %44, label %46

44:                                               ; preds = %43
  %45 = call zeroext i1 @errstart_cold(i32 noundef 21, ptr noundef null) #9
  br i1 %45, label %48, label %52

46:                                               ; preds = %43
  %47 = call zeroext i1 @errstart(i32 noundef 21, ptr noundef null)
  br i1 %47, label %48, label %52

48:                                               ; preds = %46, %44
  %49 = call i32 @errcode(i32 noundef 50856066)
  %50 = load i32, ptr %12, align 4
  %51 = call i32 (ptr, ...) @errmsg(ptr noundef @.str.21, i32 noundef %50)
  call void @errfinish(ptr noundef @.str.1, i32 noundef 647, ptr noundef @__func__.AlterStatistics)
  br label %52

52:                                               ; preds = %48, %46, %44
  unreachable

53:                                               ; No predecessors!
  br label %54

54:                                               ; preds = %53
  br label %72

55:                                               ; preds = %39
  %56 = load i32, ptr %12, align 4
  %57 = icmp sgt i32 %56, 10000
  br i1 %57, label %58, label %71

58:                                               ; preds = %55
  store i32 10000, ptr %12, align 4
  br label %59

59:                                               ; preds = %58
  br i1 false, label %60, label %62

60:                                               ; preds = %59
  %61 = call zeroext i1 @errstart_cold(i32 noundef 19, ptr noundef null) #9
  br i1 %61, label %64, label %68

62:                                               ; preds = %59
  %63 = call zeroext i1 @errstart(i32 noundef 19, ptr noundef null)
  br i1 %63, label %64, label %68

64:                                               ; preds = %62, %60
  %65 = call i32 @errcode(i32 noundef 50856066)
  %66 = load i32, ptr %12, align 4
  %67 = call i32 (ptr, ...) @errmsg(ptr noundef @.str.22, i32 noundef %66)
  call void @errfinish(ptr noundef @.str.1, i32 noundef 655, ptr noundef @__func__.AlterStatistics)
  br label %68

68:                                               ; preds = %64, %62, %60
  br label %69

69:                                               ; preds = %68
  br label %70

70:                                               ; preds = %69
  br label %71

71:                                               ; preds = %70, %55
  br label %72

72:                                               ; preds = %71, %54
  br label %73

73:                                               ; preds = %72, %36
  %74 = load ptr, ptr %3, align 8
  %75 = getelementptr inbounds nuw %struct.AlterStatsStmt, ptr %74, i32 0, i32 1
  %76 = load ptr, ptr %75, align 8
  %77 = load ptr, ptr %3, align 8
  %78 = getelementptr inbounds nuw %struct.AlterStatsStmt, ptr %77, i32 0, i32 3
  %79 = load i8, ptr %78, align 8, !range !4, !noundef !5
  %80 = trunc i8 %79 to i1
  %81 = call i32 @get_statistics_object_oid(ptr noundef %76, i1 noundef zeroext %80)
  store i32 %81, ptr %5, align 4
  %82 = load i32, ptr %5, align 4
  %83 = icmp ne i32 %82, 0
  br i1 %83, label %116, label %84

84:                                               ; preds = %73
  call void @llvm.lifetime.start.p0(i64 8, ptr %14) #8
  call void @llvm.lifetime.start.p0(i64 8, ptr %15) #8
  %85 = load ptr, ptr %3, align 8
  %86 = getelementptr inbounds nuw %struct.AlterStatsStmt, ptr %85, i32 0, i32 1
  %87 = load ptr, ptr %86, align 8
  call void @DeconstructQualifiedName(ptr noundef %87, ptr noundef %14, ptr noundef %15)
  %88 = load ptr, ptr %14, align 8
  %89 = icmp ne ptr %88, null
  br i1 %89, label %90, label %103

90:                                               ; preds = %84
  br label %91

91:                                               ; preds = %90
  br i1 false, label %92, label %94

92:                                               ; preds = %91
  %93 = call zeroext i1 @errstart_cold(i32 noundef 18, ptr noundef null) #9
  br i1 %93, label %96, label %100

94:                                               ; preds = %91
  %95 = call zeroext i1 @errstart(i32 noundef 18, ptr noundef null)
  br i1 %95, label %96, label %100

96:                                               ; preds = %94, %92
  %97 = load ptr, ptr %14, align 8
  %98 = load ptr, ptr %15, align 8
  %99 = call i32 (ptr, ...) @errmsg(ptr noundef @.str.23, ptr noundef %97, ptr noundef %98)
  call void @errfinish(ptr noundef @.str.1, i32 noundef 679, ptr noundef @__func__.AlterStatistics)
  br label %100

100:                                              ; preds = %96, %94, %92
  br label %101

101:                                              ; preds = %100
  br label %102

102:                                              ; preds = %101
  br label %115

103:                                              ; preds = %84
  br label %104

104:                                              ; preds = %103
  br i1 false, label %105, label %107

105:                                              ; preds = %104
  %106 = call zeroext i1 @errstart_cold(i32 noundef 18, ptr noundef null) #9
  br i1 %106, label %109, label %112

107:                                              ; preds = %104
  %108 = call zeroext i1 @errstart(i32 noundef 18, ptr noundef null)
  br i1 %108, label %109, label %112

109:                                              ; preds = %107, %105
  %110 = load ptr, ptr %15, align 8
  %111 = call i32 (ptr, ...) @errmsg(ptr noundef @.str.24, ptr noundef %110)
  call void @errfinish(ptr noundef @.str.1, i32 noundef 683, ptr noundef @__func__.AlterStatistics)
  br label %112

112:                                              ; preds = %109, %107, %105
  br label %113

113:                                              ; preds = %112
  br label %114

114:                                              ; preds = %113
  br label %115

115:                                              ; preds = %114, %102
  call void @llvm.memcpy.p0.p0.i64(ptr align 4 %2, ptr align 4 @InvalidObjectAddress, i64 12, i1 false)
  store i32 1, ptr %16, align 4
  call void @llvm.lifetime.end.p0(i64 8, ptr %15) #8
  call void @llvm.lifetime.end.p0(i64 8, ptr %14) #8
  br label %189

116:                                              ; preds = %73
  %117 = call ptr @table_open(i32 noundef 3381, i32 noundef 3)
  store ptr %117, ptr %4, align 8
  %118 = load i32, ptr %5, align 4
  %119 = call i64 @ObjectIdGetDatum(i32 noundef %118)
  %120 = call ptr @SearchSysCache1(i32 noundef 64, i64 noundef %119)
  store ptr %120, ptr %6, align 8
  %121 = load ptr, ptr %6, align 8
  %122 = icmp ne ptr %121, null
  br i1 %122, label %135, label %123

123:                                              ; preds = %116
  br label %124

124:                                              ; preds = %123
  br i1 true, label %125, label %127

125:                                              ; preds = %124
  %126 = call zeroext i1 @errstart_cold(i32 noundef 21, ptr noundef null) #9
  br i1 %126, label %129, label %132

127:                                              ; preds = %124
  %128 = call zeroext i1 @errstart(i32 noundef 21, ptr noundef null)
  br i1 %128, label %129, label %132

129:                                              ; preds = %127, %125
  %130 = load i32, ptr %5, align 4
  %131 = call i32 (ptr, ...) @errmsg_internal(ptr noundef @.str.25, i32 noundef %130)
  call void @errfinish(ptr noundef @.str.1, i32 noundef 693, ptr noundef @__func__.AlterStatistics)
  br label %132

132:                                              ; preds = %129, %127, %125
  unreachable

133:                                              ; No predecessors!
  br label %134

134:                                              ; preds = %133
  br label %135

135:                                              ; preds = %134, %116
  %136 = load i32, ptr %5, align 4
  %137 = call i32 @GetUserId()
  %138 = call zeroext i1 @object_ownercheck(i32 noundef 3381, i32 noundef %136, i32 noundef %137)
  br i1 %138, label %144, label %139

139:                                              ; preds = %135
  %140 = load ptr, ptr %3, align 8
  %141 = getelementptr inbounds nuw %struct.AlterStatsStmt, ptr %140, i32 0, i32 1
  %142 = load ptr, ptr %141, align 8
  %143 = call ptr @NameListToString(ptr noundef %142)
  call void @aclcheck_error(i32 noundef 2, i32 noundef 39, ptr noundef %143)
  br label %144

144:                                              ; preds = %139, %135
  %145 = getelementptr inbounds [9 x i64], ptr %8, i64 0, i64 0
  call void @llvm.memset.p0.i64(ptr align 16 %145, i8 0, i64 72, i1 false)
  %146 = getelementptr inbounds [9 x i8], ptr %9, i64 0, i64 0
  call void @llvm.memset.p0.i64(ptr align 1 %146, i8 0, i64 9, i1 false)
  %147 = getelementptr inbounds [9 x i8], ptr %10, i64 0, i64 0
  call void @llvm.memset.p0.i64(ptr align 1 %147, i8 0, i64 9, i1 false)
  %148 = getelementptr inbounds [9 x i8], ptr %10, i64 0, i64 6
  store i8 1, ptr %148, align 1
  %149 = load i8, ptr %13, align 1, !range !4, !noundef !5
  %150 = trunc i8 %149 to i1
  br i1 %150, label %156, label %151

151:                                              ; preds = %144
  %152 = load i32, ptr %12, align 4
  %153 = trunc i32 %152 to i16
  %154 = call i64 @Int16GetDatum(i16 noundef signext %153)
  %155 = getelementptr inbounds [9 x i64], ptr %8, i64 0, i64 6
  store i64 %154, ptr %155, align 16
  br label %158

156:                                              ; preds = %144
  %157 = getelementptr inbounds [9 x i8], ptr %9, i64 0, i64 6
  store i8 1, ptr %157, align 1
  br label %158

158:                                              ; preds = %156, %151
  %159 = load ptr, ptr %6, align 8
  %160 = load ptr, ptr %4, align 8
  %161 = getelementptr inbounds nuw %struct.RelationData, ptr %160, i32 0, i32 14
  %162 = load ptr, ptr %161, align 8
  %163 = getelementptr inbounds [9 x i64], ptr %8, i64 0, i64 0
  %164 = getelementptr inbounds [9 x i8], ptr %9, i64 0, i64 0
  %165 = getelementptr inbounds [9 x i8], ptr %10, i64 0, i64 0
  %166 = call ptr @heap_modify_tuple(ptr noundef %159, ptr noundef %162, ptr noundef %163, ptr noundef %164, ptr noundef %165)
  store ptr %166, ptr %7, align 8
  %167 = load ptr, ptr %4, align 8
  %168 = load ptr, ptr %7, align 8
  %169 = getelementptr inbounds nuw %struct.HeapTupleData, ptr %168, i32 0, i32 1
  %170 = load ptr, ptr %7, align 8
  call void @CatalogTupleUpdate(ptr noundef %167, ptr noundef %169, ptr noundef %170)
  br label %171

171:                                              ; preds = %158
  %172 = load ptr, ptr @object_access_hook, align 8
  %173 = icmp ne ptr %172, null
  br i1 %173, label %174, label %176

174:                                              ; preds = %171
  %175 = load i32, ptr %5, align 4
  call void @RunObjectPostAlterHook(i32 noundef 3381, i32 noundef %175, i32 noundef 0, i32 noundef 0, i1 noundef zeroext false)
  br label %176

176:                                              ; preds = %174, %171
  br label %177

177:                                              ; preds = %176
  br label %178

178:                                              ; preds = %177
  br label %179

179:                                              ; preds = %178
  %180 = getelementptr inbounds nuw %struct.ObjectAddress, ptr %11, i32 0, i32 0
  store i32 3381, ptr %180, align 4
  %181 = load i32, ptr %5, align 4
  %182 = getelementptr inbounds nuw %struct.ObjectAddress, ptr %11, i32 0, i32 1
  store i32 %181, ptr %182, align 4
  %183 = getelementptr inbounds nuw %struct.ObjectAddress, ptr %11, i32 0, i32 2
  store i32 0, ptr %183, align 4
  br label %184

184:                                              ; preds = %179
  br label %185

185:                                              ; preds = %184
  %186 = load ptr, ptr %7, align 8
  call void @heap_freetuple(ptr noundef %186)
  %187 = load ptr, ptr %6, align 8
  call void @ReleaseSysCache(ptr noundef %187)
  %188 = load ptr, ptr %4, align 8
  call void @table_close(ptr noundef %188, i32 noundef 3)
  call void @llvm.memcpy.p0.p0.i64(ptr align 4 %2, ptr align 4 %11, i64 12, i1 false)
  store i32 1, ptr %16, align 4
  br label %189

189:                                              ; preds = %185, %115
  call void @llvm.lifetime.end.p0(i64 1, ptr %13) #8
  call void @llvm.lifetime.end.p0(i64 4, ptr %12) #8
  call void @llvm.lifetime.end.p0(i64 12, ptr %11) #8
  call void @llvm.lifetime.end.p0(i64 9, ptr %10) #8
  call void @llvm.lifetime.end.p0(i64 9, ptr %9) #8
  call void @llvm.lifetime.end.p0(i64 72, ptr %8) #8
  call void @llvm.lifetime.end.p0(i64 8, ptr %7) #8
  call void @llvm.lifetime.end.p0(i64 8, ptr %6) #8
  call void @llvm.lifetime.end.p0(i64 4, ptr %5) #8
  call void @llvm.lifetime.end.p0(i64 8, ptr %4) #8
  call void @llvm.memcpy.p0.p0.i64(ptr align 8 %17, ptr align 4 %2, i64 12, i1 false)
  %190 = load { i64, i32 }, ptr %17, align 8
  ret { i64, i32 } %190
}