; Function Attrs: nounwind uwtable
define dso_local { i64, i32 } @AlterStatistics(ptr noundef readonly captures(none) %0) local_unnamed_addr #0 {
  %2 = alloca [9 x i64], align 16
  %3 = alloca [9 x i8], align 1
  %4 = alloca [9 x i8], align 1
  %5 = alloca ptr, align 8
  %6 = alloca ptr, align 8
  call void @llvm.lifetime.start.p0(i64 72, ptr nonnull %2) #10
  call void @llvm.lifetime.start.p0(i64 9, ptr nonnull %3) #10
  call void @llvm.lifetime.start.p0(i64 9, ptr nonnull %4) #10
  %7 = getelementptr inbounds nuw i8, ptr %0, i64 16
  %8 = load ptr, ptr %7, align 8
  %.not = icmp eq ptr %8, null
  br i1 %.not, label %.thread, label %9

9:                                                ; preds = %1
  %10 = getelementptr inbounds nuw i8, ptr %8, i64 4
  %11 = load i32, ptr %10, align 4
  %.not36 = icmp eq i32 %11, -1
  br i1 %.not36, label %.thread, label %12

12:                                               ; preds = %9
  %13 = icmp slt i32 %11, 0
  br i1 %13, label %14, label %18

14:                                               ; preds = %12
  %15 = tail call zeroext i1 @errstart_cold(i32 noundef 21, ptr noundef null) #11
  tail call void @llvm.assume(i1 %15)
  %16 = tail call i32 @errcode(i32 noundef 50856066) #10
  %17 = tail call i32 (ptr, ...) @errmsg(ptr noundef nonnull @.str.21, i32 noundef %11) #10
  tail call void @errfinish(ptr noundef nonnull @.str.1, i32 noundef 647, ptr noundef nonnull @__func__.AlterStatistics) #10
  unreachable

18:                                               ; preds = %12
  %19 = icmp samesign ugt i32 %11, 10000
  br i1 %19, label %20, label %.thread

20:                                               ; preds = %18
  %21 = tail call zeroext i1 @errstart(i32 noundef 19, ptr noundef null) #10
  br i1 %21, label %22, label %.thread

22:                                               ; preds = %20
  %23 = tail call i32 @errcode(i32 noundef 50856066) #10
  %24 = tail call i32 (ptr, ...) @errmsg(ptr noundef nonnull @.str.22, i32 noundef 10000) #10
  tail call void @errfinish(ptr noundef nonnull @.str.1, i32 noundef 655, ptr noundef nonnull @__func__.AlterStatistics) #10
  br label %.thread

.thread:                                          ; preds = %9, %1, %20, %22, %18
  %.043 = phi i1 [ false, %22 ], [ false, %20 ], [ false, %18 ], [ true, %1 ], [ true, %9 ]
  %.1 = phi i32 [ 10000, %22 ], [ 10000, %20 ], [ %11, %18 ], [ 0, %1 ], [ 0, %9 ]
  %25 = getelementptr inbounds nuw i8, ptr %0, i64 8
  %26 = load ptr, ptr %25, align 8
  %27 = getelementptr inbounds nuw i8, ptr %0, i64 24
  %28 = load i8, ptr %27, align 8, !range !4, !noundef !5
  %29 = trunc nuw i8 %28 to i1
  %30 = tail call i32 @get_statistics_object_oid(ptr noundef %26, i1 noundef zeroext %29) #10
  %.not37 = icmp eq i32 %30, 0
  br i1 %.not37, label %31, label %46

31:                                               ; preds = %.thread
  call void @llvm.lifetime.start.p0(i64 8, ptr nonnull %5) #10
  call void @llvm.lifetime.start.p0(i64 8, ptr nonnull %6) #10
  %32 = load ptr, ptr %25, align 8
  call void @DeconstructQualifiedName(ptr noundef %32, ptr noundef nonnull %5, ptr noundef nonnull %6) #10
  %33 = load ptr, ptr %5, align 8
  %.not38 = icmp eq ptr %33, null
  %34 = call zeroext i1 @errstart(i32 noundef 18, ptr noundef null) #10
  br i1 %.not38, label %40, label %35

35:                                               ; preds = %31
  br i1 %34, label %36, label %44

36:                                               ; preds = %35
  %37 = load ptr, ptr %5, align 8
  %38 = load ptr, ptr %6, align 8
  %39 = call i32 (ptr, ...) @errmsg(ptr noundef nonnull @.str.23, ptr noundef %37, ptr noundef %38) #10
  br label %.sink.split

40:                                               ; preds = %31
  br i1 %34, label %41, label %44

41:                                               ; preds = %40
  %42 = load ptr, ptr %6, align 8
  %43 = call i32 (ptr, ...) @errmsg(ptr noundef nonnull @.str.24, ptr noundef %42) #10
  br label %.sink.split

.sink.split:                                      ; preds = %36, %41
  %.sink = phi i32 [ 683, %41 ], [ 679, %36 ]
  call void @errfinish(ptr noundef nonnull @.str.1, i32 noundef %.sink, ptr noundef nonnull @__func__.AlterStatistics) #10
  br label %44

44:                                               ; preds = %.sink.split, %40, %35
  %.sroa.029.0.copyload = load i64, ptr @InvalidObjectAddress, align 4
  %.sroa.029.sroa.3.0.extract.shift = lshr i64 %.sroa.029.0.copyload, 32
  %.sroa.430.0.copyload = load i32, ptr getelementptr inbounds nuw (i8, ptr @InvalidObjectAddress, i64 8), align 4
  call void @llvm.lifetime.end.p0(i64 8, ptr nonnull %6) #10
  call void @llvm.lifetime.end.p0(i64 8, ptr nonnull %5) #10
  %45 = and i64 %.sroa.029.0.copyload, 4294967295
  br label %74

46:                                               ; preds = %.thread
  %47 = tail call ptr @table_open(i32 noundef 3381, i32 noundef 3) #10
  %48 = zext i32 %30 to i64
  %49 = tail call ptr @SearchSysCache1(i32 noundef 64, i64 noundef %48) #10
  %.not39 = icmp eq ptr %49, null
  br i1 %.not39, label %50, label %53

50:                                               ; preds = %46
  %51 = tail call zeroext i1 @errstart_cold(i32 noundef 21, ptr noundef null) #11
  tail call void @llvm.assume(i1 %51)
  %52 = tail call i32 (ptr, ...) @errmsg_internal(ptr noundef nonnull @.str.25, i32 noundef %30) #10
  tail call void @errfinish(ptr noundef nonnull @.str.1, i32 noundef 693, ptr noundef nonnull @__func__.AlterStatistics) #10
  unreachable

53:                                               ; preds = %46
  %54 = tail call i32 @GetUserId() #10
  %55 = tail call zeroext i1 @object_ownercheck(i32 noundef 3381, i32 noundef %30, i32 noundef %54) #10
  br i1 %55, label %59, label %56

56:                                               ; preds = %53
  %57 = load ptr, ptr %25, align 8
  %58 = tail call ptr @NameListToString(ptr noundef %57) #10
  tail call void @aclcheck_error(i32 noundef 2, i32 noundef 39, ptr noundef %58) #10
  br label %59

59:                                               ; preds = %56, %53
  call void @llvm.memset.p0.i64(ptr noundef nonnull align 16 dereferenceable(72) %2, i8 0, i64 72, i1 false)
  call void @llvm.memset.p0.i64(ptr noundef nonnull align 1 dereferenceable(9) %3, i8 0, i64 9, i1 false)
  call void @llvm.memset.p0.i64(ptr noundef nonnull align 1 dereferenceable(9) %4, i8 0, i64 9, i1 false)
  %60 = getelementptr inbounds nuw i8, ptr %4, i64 6
  store i8 1, ptr %60, align 1
  br i1 %.043, label %64, label %61

61:                                               ; preds = %59
  %62 = zext nneg i32 %.1 to i64
  %63 = getelementptr inbounds nuw i8, ptr %2, i64 48
  store i64 %62, ptr %63, align 16
  br label %66

64:                                               ; preds = %59
  %65 = getelementptr inbounds nuw i8, ptr %3, i64 6
  store i8 1, ptr %65, align 1
  br label %66

66:                                               ; preds = %64, %61
  %67 = getelementptr inbounds nuw i8, ptr %47, i64 64
  %68 = load ptr, ptr %67, align 8
  %69 = call ptr @heap_modify_tuple(ptr noundef nonnull %49, ptr noundef %68, ptr noundef nonnull %2, ptr noundef nonnull %3, ptr noundef nonnull %4) #10
  %70 = getelementptr inbounds nuw i8, ptr %69, i64 4
  call void @CatalogTupleUpdate(ptr noundef %47, ptr noundef nonnull %70, ptr noundef %69) #10
  %71 = load ptr, ptr @object_access_hook, align 8
  %.not40 = icmp eq ptr %71, null
  br i1 %.not40, label %73, label %72

72:                                               ; preds = %66
  call void @RunObjectPostAlterHook(i32 noundef 3381, i32 noundef %30, i32 noundef 0, i32 noundef 0, i1 noundef zeroext false) #10
  br label %73

73:                                               ; preds = %66, %72
  call void @heap_freetuple(ptr noundef nonnull %69) #10
  call void @ReleaseSysCache(ptr noundef nonnull %49) #10
  call void @table_close(ptr noundef nonnull %47, i32 noundef 3) #10
  br label %74

74:                                               ; preds = %73, %44
  %.sroa.029.sroa.3.0.insert.ext.pre-phi = phi i64 [ %48, %73 ], [ %.sroa.029.sroa.3.0.extract.shift, %44 ]
  %.sroa.430.0 = phi i32 [ 0, %73 ], [ %.sroa.430.0.copyload, %44 ]
  %.sroa.029.sroa.0.0 = phi i64 [ 3381, %73 ], [ %45, %44 ]
  call void @llvm.lifetime.end.p0(i64 9, ptr nonnull %4) #10
  call void @llvm.lifetime.end.p0(i64 9, ptr nonnull %3) #10
  call void @llvm.lifetime.end.p0(i64 72, ptr nonnull %2) #10
  %.sroa.029.sroa.3.0.insert.shift = shl nuw i64 %.sroa.029.sroa.3.0.insert.ext.pre-phi, 32
  %.sroa.029.sroa.0.0.insert.insert = or disjoint i64 %.sroa.029.sroa.3.0.insert.shift, %.sroa.029.sroa.0.0
  %.fca.0.insert = insertvalue { i64, i32 } poison, i64 %.sroa.029.sroa.0.0.insert.insert, 0
  %.fca.1.insert = insertvalue { i64, i32 } %.fca.0.insert, i32 %.sroa.430.0, 1
  ret { i64, i32 } %.fca.1.insert
}